target datalayout = "e-m:e-p270:32:32-p271:32:32-p272:64:64-i64:64-i128:128-f80:128-n8:16:32:64-S128"
target triple = "x86_64-pc-linux-gnu"

%class.OopMap = type { i32, i32, i32, i32, i8, ptr }
%class.CompressedStream = type <{ ptr, i32, [4 x i8] }>

; Function Attrs: mustprogress nounwind uwtable
define linkonce_odr hidden noundef i32 @_ZNK16CompressedStream8positionEv(ptr noundef nonnull align 8 dereferenceable(12) %0) #1 comdat align 2 {
  %2 = alloca ptr, align 8
  store ptr %0, ptr %2, align 8
  %3 = load ptr, ptr %2, align 8
  %4 = getelementptr inbounds %class.CompressedStream, ptr %3, i32 0, i32 1
  %5 = load i32, ptr %4, align 8
  ret i32 %5
}

; Function Attrs: mustprogress nounwind uwtable
define linkonce_odr hidden noundef ptr @_ZNK6OopMap12write_streamEv(ptr noundef nonnull align 8 dereferenceable(32) %0) #1 comdat align 2 {
  %2 = alloca ptr, align 8
  store ptr %0, ptr %2, align 8
  %3 = load ptr, ptr %2, align 8
  %4 = getelementptr inbounds %class.OopMap, ptr %3, i32 0, i32 5
  %5 = load ptr, ptr %4, align 8
  ret ptr %5
}

; Function Attrs: mustprogress nounwind uwtable
define hidden noundef i32 @_ZNK6OopMap9heap_sizeEv(ptr noundef nonnull align 8 dereferenceable(32) %0) #1 align 2 {
  %2 = alloca ptr, align 8
  %3 = alloca i32, align 4
  %4 = alloca i32, align 4
  store ptr %0, ptr %2, align 8
  %5 = load ptr, ptr %2, align 8
  store i32 32, ptr %3, align 4
  store i32 7, ptr %4, align 4
  %6 = call noundef ptr @_ZNK6OopMap12write_streamEv(ptr noundef nonnull align 8 dereferenceable(32) %5)
  %7 = call noundef i32 @_ZNK16CompressedStream8positionEv(ptr noundef nonnull align 8 dereferenceable(12) %6)
  %8 = load i32, ptr %3, align 4
  %9 = add nsw i32 %8, %7
  store i32 %9, ptr %3, align 4
  %10 = load i32, ptr %3, align 4
  %11 = load i32, ptr %4, align 4
  %12 = add nsw i32 %10, %11
  %13 = load i32, ptr %4, align 4
  %14 = xor i32 %13, -1
  %15 = and i32 %12, %14
  store i32 %15, ptr %3, align 4
  %16 = load i32, ptr %3, align 4
  ret i32 %16
}